target datalayout = "e-m:e-p270:32:32-p271:32:32-p272:64:64-i64:64-i128:128-f80:128-n8:16:32:64-S128"
target triple = "x86_64-pc-linux-gnu"

%struct.png_struct_def = type { [1 x %struct.__jmp_buf_tag], ptr, ptr, i64, ptr, ptr, ptr, ptr, ptr, ptr, ptr, ptr, ptr, i8, i8, i32, i32, i32, i32, %struct.z_stream_s, ptr, i32, i32, i32, i32, i32, i32, i32, i32, i32, i32, i32, i32, i32, i32, i32, i32, i32, i32, i32, i32, i32, i64, i32, i32, i32, ptr, ptr, ptr, ptr, i64, i32, i32, ptr, i16, i32, i16, i8, i8, i8, i8, i8, i8, i8, i8, i8, i8, i8, i8, i8, i8, i8, i16, i8, i32, %struct.png_color_16_struct, %struct.png_color_16_struct, ptr, i32, i32, %struct.png_xy, i32, i32, i32, i32, i32, ptr, ptr, ptr, ptr, ptr, ptr, %struct.png_color_8_struct, %struct.png_color_8_struct, ptr, %struct.png_color_16_struct, ptr, ptr, ptr, ptr, ptr, ptr, ptr, ptr, ptr, i32, i32, i64, i64, i64, i64, i32, i32, ptr, ptr, i32, [29 x i8], i32, ptr, ptr, i32, i32, ptr, i8, i8, i16, i16, ptr, i32, i8, ptr, ptr, ptr, ptr, ptr, ptr, ptr, i8, i32, i32, i32, i64, %struct.png_unknown_chunk_t, i64, ptr, i64, i32, i32, ptr, [4 x ptr] }
%struct.__jmp_buf_tag = type { [8 x i64], i32, %struct.__sigset_t }
%struct.__sigset_t = type { [16 x i64] }
%struct.z_stream_s = type { ptr, i32, i64, ptr, i32, i64, ptr, ptr, ptr, ptr, ptr, i32, i64, i64 }
%struct.png_xy = type { i32, i32, i32, i32, i32, i32, i32, i32 }
%struct.png_color_8_struct = type { i8, i8, i8, i8, i8 }
%struct.png_color_16_struct = type { i8, i16, i16, i16, i16 }
%struct.png_unknown_chunk_t = type { [5 x i8], ptr, i64, i8 }

; Function Attrs: nounwind uwtable
define void @png_save_uint_32(ptr noundef %0, i32 noundef %1) #0 {
  %3 = alloca ptr, align 8
  %4 = alloca i32, align 4
  store ptr %0, ptr %3, align 8, !tbaa !3
  store i32 %1, ptr %4, align 4, !tbaa !8
  %5 = load i32, ptr %4, align 4, !tbaa !8
  %6 = lshr i32 %5, 24
  %7 = and i32 %6, 255
  %8 = trunc i32 %7 to i8
  %9 = load ptr, ptr %3, align 8, !tbaa !3
  %10 = getelementptr inbounds i8, ptr %9, i64 0
  store i8 %8, ptr %10, align 1, !tbaa !10
  %11 = load i32, ptr %4, align 4, !tbaa !8
  %12 = lshr i32 %11, 16
  %13 = and i32 %12, 255
  %14 = trunc i32 %13 to i8
  %15 = load ptr, ptr %3, align 8, !tbaa !3
  %16 = getelementptr inbounds i8, ptr %15, i64 1
  store i8 %14, ptr %16, align 1, !tbaa !10
  %17 = load i32, ptr %4, align 4, !tbaa !8
  %18 = lshr i32 %17, 8
  %19 = and i32 %18, 255
  %20 = trunc i32 %19 to i8
  %21 = load ptr, ptr %3, align 8, !tbaa !3
  %22 = getelementptr inbounds i8, ptr %21, i64 2
  store i8 %20, ptr %22, align 1, !tbaa !10
  %23 = load i32, ptr %4, align 4, !tbaa !8
  %24 = and i32 %23, 255
  %25 = trunc i32 %24 to i8
  %26 = load ptr, ptr %3, align 8, !tbaa !3
  %27 = getelementptr inbounds i8, ptr %26, i64 3
  store i8 %25, ptr %27, align 1, !tbaa !10
  ret void
}

; Function Attrs: nounwind uwtable
define void @png_write_chunk_end(ptr noalias noundef %0) #0 {
  %2 = alloca ptr, align 8
  %3 = alloca [4 x i8], align 1
  %4 = alloca i32, align 4
  store ptr %0, ptr %2, align 8, !tbaa !11
  call void @llvm.lifetime.start.p0(i64 4, ptr %3) #7
  %5 = load ptr, ptr %2, align 8, !tbaa !11
  %6 = icmp eq ptr %5, null
  br i1 %6, label %7, label %8

7:                                                ; preds = %1
  store i32 1, ptr %4, align 4
  br label %17

8:                                                ; preds = %1
  %9 = load ptr, ptr %2, align 8, !tbaa !11
  %10 = getelementptr inbounds nuw %struct.png_struct_def, ptr %9, i32 0, i32 147
  store i32 130, ptr %10, align 4, !tbaa !13
  %11 = getelementptr inbounds [4 x i8], ptr %3, i64 0, i64 0
  %12 = load ptr, ptr %2, align 8, !tbaa !11
  %13 = getelementptr inbounds nuw %struct.png_struct_def, ptr %12, i32 0, i32 52
  %14 = load i32, ptr %13, align 4, !tbaa !31
  call void @png_save_uint_32(ptr noundef %11, i32 noundef %14)
  %15 = load ptr, ptr %2, align 8, !tbaa !11
  %16 = getelementptr inbounds [4 x i8], ptr %3, i64 0, i64 0
  call void @png_write_data(ptr noundef %15, ptr noundef %16, i64 noundef 4)
  store i32 0, ptr %4, align 4
  br label %17

17:                                               ; preds = %8, %7
  call void @llvm.lifetime.end.p0(i64 4, ptr %3) #7
  %18 = load i32, ptr %4, align 4
  switch i32 %18, label %20 [
    i32 0, label %19
    i32 1, label %19
  ]

19:                                               ; preds = %17, %17
  ret void

20:                                               ; preds = %17
  unreachable
}

; Function Attrs: nounwind uwtable
define void @png_write_chunk_data(ptr noalias noundef %0, ptr noundef %1, i64 noundef %2) #0 {
  %4 = alloca ptr, align 8
  %5 = alloca ptr, align 8
  %6 = alloca i64, align 8
  store ptr %0, ptr %4, align 8, !tbaa !11
  store ptr %1, ptr %5, align 8, !tbaa !3
  store i64 %2, ptr %6, align 8, !tbaa !30
  %7 = load ptr, ptr %4, align 8, !tbaa !11
  %8 = icmp eq ptr %7, null
  br i1 %8, label %9, label %10

9:                                                ; preds = %3
  br label %23

10:                                               ; preds = %3
  %11 = load ptr, ptr %5, align 8, !tbaa !3
  %12 = icmp ne ptr %11, null
  br i1 %12, label %13, label %23

13:                                               ; preds = %10
  %14 = load i64, ptr %6, align 8, !tbaa !30
  %15 = icmp ugt i64 %14, 0
  br i1 %15, label %16, label %23

16:                                               ; preds = %13
  %17 = load ptr, ptr %4, align 8, !tbaa !11
  %18 = load ptr, ptr %5, align 8, !tbaa !3
  %19 = load i64, ptr %6, align 8, !tbaa !30
  call void @png_write_data(ptr noundef %17, ptr noundef %18, i64 noundef %19)
  %20 = load ptr, ptr %4, align 8, !tbaa !11
  %21 = load ptr, ptr %5, align 8, !tbaa !3
  %22 = load i64, ptr %6, align 8, !tbaa !30
  call void @png_calculate_crc(ptr noundef %20, ptr noundef %21, i64 noundef %22)
  br label %23

23:                                               ; preds = %9, %16, %13, %10
  ret void
}

; Function Attrs: nounwind uwtable
define internal void @png_write_chunk_header(ptr noalias noundef %0, i32 noundef %1, i32 noundef %2) #0 {
  %4 = alloca ptr, align 8
  %5 = alloca i32, align 4
  %6 = alloca i32, align 4
  %7 = alloca [8 x i8], align 1
  %8 = alloca i32, align 4
  store ptr %0, ptr %4, align 8, !tbaa !11
  store i32 %1, ptr %5, align 4, !tbaa !8
  store i32 %2, ptr %6, align 4, !tbaa !8
  call void @llvm.lifetime.start.p0(i64 8, ptr %7) #7
  %9 = load ptr, ptr %4, align 8, !tbaa !11
  %10 = icmp eq ptr %9, null
  br i1 %10, label %11, label %12

11:                                               ; preds = %3
  store i32 1, ptr %8, align 4
  br label %31

12:                                               ; preds = %3
  %13 = load ptr, ptr %4, align 8, !tbaa !11
  %14 = getelementptr inbounds nuw %struct.png_struct_def, ptr %13, i32 0, i32 147
  store i32 34, ptr %14, align 4, !tbaa !13
  %15 = getelementptr inbounds [8 x i8], ptr %7, i64 0, i64 0
  %16 = load i32, ptr %6, align 4, !tbaa !8
  call void @png_save_uint_32(ptr noundef %15, i32 noundef %16)
  %17 = getelementptr inbounds [8 x i8], ptr %7, i64 0, i64 0
  %18 = getelementptr inbounds i8, ptr %17, i64 4
  %19 = load i32, ptr %5, align 4, !tbaa !8
  call void @png_save_uint_32(ptr noundef %18, i32 noundef %19)
  %20 = load ptr, ptr %4, align 8, !tbaa !11
  %21 = getelementptr inbounds [8 x i8], ptr %7, i64 0, i64 0
  call void @png_write_data(ptr noundef %20, ptr noundef %21, i64 noundef 8)
  %22 = load i32, ptr %5, align 4, !tbaa !8
  %23 = load ptr, ptr %4, align 8, !tbaa !11
  %24 = getelementptr inbounds nuw %struct.png_struct_def, ptr %23, i32 0, i32 45
  store i32 %22, ptr %24, align 8, !tbaa !29
  %25 = load ptr, ptr %4, align 8, !tbaa !11
  call void @png_reset_crc(ptr noundef %25)
  %26 = load ptr, ptr %4, align 8, !tbaa !11
  %27 = getelementptr inbounds [8 x i8], ptr %7, i64 0, i64 0
  %28 = getelementptr inbounds i8, ptr %27, i64 4
  call void @png_calculate_crc(ptr noundef %26, ptr noundef %28, i64 noundef 4)
  %29 = load ptr, ptr %4, align 8, !tbaa !11
  %30 = getelementptr inbounds nuw %struct.png_struct_def, ptr %29, i32 0, i32 147
  store i32 66, ptr %30, align 4, !tbaa !13
  store i32 0, ptr %8, align 4
  br label %31

31:                                               ; preds = %12, %11
  call void @llvm.lifetime.end.p0(i64 8, ptr %7) #7
  %32 = load i32, ptr %8, align 4
  switch i32 %32, label %34 [
    i32 0, label %33
    i32 1, label %33
  ]

33:                                               ; preds = %31, %31
  ret void

34:                                               ; preds = %31
  unreachable
}

; Function Attrs: nounwind uwtable
define void @png_write_eXIf(ptr noalias noundef %0, ptr noundef %1, i32 noundef %2) #0 {
  %4 = alloca ptr, align 8
  %5 = alloca ptr, align 8
  %6 = alloca i32, align 4
  %7 = alloca i32, align 4
  %8 = alloca [1 x i8], align 1
  store ptr %0, ptr %4, align 8, !tbaa !11
  store ptr %1, ptr %5, align 8, !tbaa !3
  store i32 %2, ptr %6, align 4, !tbaa !8
  call void @llvm.lifetime.start.p0(i64 4, ptr %7) #7
  call void @llvm.lifetime.start.p0(i64 1, ptr %8) #7
  %9 = load ptr, ptr %4, align 8, !tbaa !11
  %10 = load i32, ptr %6, align 4, !tbaa !8
  call void @png_write_chunk_header(ptr noundef %9, i32 noundef 1700284774, i32 noundef %10)
  store i32 0, ptr %7, align 4, !tbaa !8
  br label %11

11:                                               ; preds = %24, %3
  %12 = load i32, ptr %7, align 4, !tbaa !8
  %13 = load i32, ptr %6, align 4, !tbaa !8
  %14 = icmp slt i32 %12, %13
  br i1 %14, label %15, label %27

15:                                               ; preds = %11
  %16 = load ptr, ptr %5, align 8, !tbaa !3
  %17 = load i32, ptr %7, align 4, !tbaa !8
  %18 = sext i32 %17 to i64
  %19 = getelementptr inbounds i8, ptr %16, i64 %18
  %20 = load i8, ptr %19, align 1, !tbaa !10
  %21 = getelementptr inbounds [1 x i8], ptr %8, i64 0, i64 0
  store i8 %20, ptr %21, align 1, !tbaa !10
  %22 = load ptr, ptr %4, align 8, !tbaa !11
  %23 = getelementptr inbounds [1 x i8], ptr %8, i64 0, i64 0
  call void @png_write_chunk_data(ptr noundef %22, ptr noundef %23, i64 noundef 1)
  br label %24

24:                                               ; preds = %15
  %25 = load i32, ptr %7, align 4, !tbaa !8
  %26 = add nsw i32 %25, 1
  store i32 %26, ptr %7, align 4, !tbaa !8
  br label %11, !llvm.loop !135

27:                                               ; preds = %11
  %28 = load ptr, ptr %4, align 8, !tbaa !11
  call void @png_write_chunk_end(ptr noundef %28)
  call void @llvm.lifetime.end.p0(i64 1, ptr %8) #7
  call void @llvm.lifetime.end.p0(i64 4, ptr %7) #7
  ret void
}