; Function Attrs: nounwind uwtable
define void @png_write_eXIf(ptr noalias noundef %0, ptr noundef readonly captures(none) %1, i32 noundef %2) local_unnamed_addr #1 {
  %4 = alloca [4 x i8], align 1
  %5 = alloca [8 x i8], align 1
  %6 = alloca [1 x i8], align 1
  call void @llvm.lifetime.start.p0(i64 1, ptr nonnull %6) #12
  tail call void @llvm.experimental.noalias.scope.decl(metadata !174)
  call void @llvm.lifetime.start.p0(i64 8, ptr nonnull %5) #12, !noalias !174
  %7 = icmp eq ptr %0, null
  br i1 %7, label %png_write_chunk_header.exit, label %png_write_chunk_header.exit.thread

png_write_chunk_header.exit:                      ; preds = %3
  call void @llvm.lifetime.end.p0(i64 8, ptr nonnull %5) #12, !noalias !174
  %8 = icmp sgt i32 %2, 0
  br i1 %8, label %png_write_chunk_data.exit.us.preheader, label %._crit_edge

png_write_chunk_header.exit.thread:               ; preds = %3
  %9 = getelementptr inbounds nuw i8, ptr %0, i64 1196
  store i32 34, ptr %9, align 4, !tbaa !6, !alias.scope !174
  %10 = lshr i32 %2, 24
  %11 = trunc nuw i32 %10 to i8
  store i8 %11, ptr %5, align 1, !tbaa !3, !noalias !174
  %12 = lshr i32 %2, 16
  %13 = trunc i32 %12 to i8
  %14 = getelementptr inbounds nuw i8, ptr %5, i64 1
  store i8 %13, ptr %14, align 1, !tbaa !3, !noalias !174
  %15 = lshr i32 %2, 8
  %16 = trunc i32 %15 to i8
  %17 = getelementptr inbounds nuw i8, ptr %5, i64 2
  store i8 %16, ptr %17, align 1, !tbaa !3, !noalias !174
  %18 = trunc i32 %2 to i8
  %19 = getelementptr inbounds nuw i8, ptr %5, i64 3
  store i8 %18, ptr %19, align 1, !tbaa !3, !noalias !174
  %20 = getelementptr inbounds nuw i8, ptr %5, i64 4
  store i8 101, ptr %20, align 1, !tbaa !3, !noalias !174
  %21 = getelementptr inbounds nuw i8, ptr %5, i64 5
  store i8 88, ptr %21, align 1, !tbaa !3, !noalias !174
  %22 = getelementptr inbounds nuw i8, ptr %5, i64 6
  store i8 73, ptr %22, align 1, !tbaa !3, !noalias !174
  %23 = getelementptr inbounds nuw i8, ptr %5, i64 7
  store i8 102, ptr %23, align 1, !tbaa !3, !noalias !174
  call void @png_write_data(ptr noundef nonnull %0, ptr noundef nonnull %5, i64 noundef 8) #12
  %24 = getelementptr inbounds nuw i8, ptr %0, i64 544
  store i32 1700284774, ptr %24, align 8, !tbaa !28, !alias.scope !174
  call void @png_reset_crc(ptr noundef nonnull %0) #12
  call void @png_calculate_crc(ptr noundef nonnull %0, ptr noundef nonnull %20, i64 noundef 4) #12
  store i32 66, ptr %9, align 4, !tbaa !6, !alias.scope !174
  call void @llvm.lifetime.end.p0(i64 8, ptr nonnull %5) #12, !noalias !174
  %25 = icmp sgt i32 %2, 0
  br i1 %25, label %png_write_chunk_data.exit.preheader, label %._crit_edge.thread

png_write_chunk_data.exit.preheader:              ; preds = %png_write_chunk_header.exit.thread
  %wide.trip.count = zext nneg i32 %2 to i64
  br label %png_write_chunk_data.exit

png_write_chunk_data.exit.us.preheader:           ; preds = %png_write_chunk_header.exit
  %26 = zext nneg i32 %2 to i64
  %27 = getelementptr i8, ptr %1, i64 %26
  %28 = getelementptr i8, ptr %27, i64 -1
  %29 = load i8, ptr %28, align 1, !tbaa !3
  store i8 %29, ptr %6, align 1, !tbaa !3
  br label %._crit_edge

png_write_chunk_data.exit:                        ; preds = %png_write_chunk_data.exit.preheader, %png_write_chunk_data.exit
  %indvars.iv = phi i64 [ 0, %png_write_chunk_data.exit.preheader ], [ %indvars.iv.next, %png_write_chunk_data.exit ]
  %30 = getelementptr inbounds nuw i8, ptr %1, i64 %indvars.iv
  %31 = load i8, ptr %30, align 1, !tbaa !3
  store i8 %31, ptr %6, align 1, !tbaa !3
  call void @png_write_data(ptr noundef nonnull %0, ptr noundef nonnull %6, i64 noundef 1) #12
  call void @png_calculate_crc(ptr noundef nonnull %0, ptr noundef nonnull %6, i64 noundef 1) #12
  %indvars.iv.next = add nuw nsw i64 %indvars.iv, 1
  %exitcond.not = icmp eq i64 %indvars.iv.next, %wide.trip.count
  br i1 %exitcond.not, label %._crit_edge.thread, label %png_write_chunk_data.exit, !llvm.loop !177

._crit_edge.thread:                               ; preds = %png_write_chunk_data.exit, %png_write_chunk_header.exit.thread
  call void @llvm.lifetime.start.p0(i64 4, ptr nonnull %4) #12, !noalias !178
  %32 = getelementptr inbounds nuw i8, ptr %0, i64 1196
  store i32 130, ptr %32, align 4, !tbaa !6, !alias.scope !181
  %33 = getelementptr inbounds nuw i8, ptr %0, i64 596
  %34 = load i32, ptr %33, align 4, !tbaa !29, !alias.scope !181
  %35 = lshr i32 %34, 24
  %36 = trunc nuw i32 %35 to i8
  store i8 %36, ptr %4, align 1, !tbaa !3, !noalias !181
  %37 = lshr i32 %34, 16
  %38 = trunc i32 %37 to i8
  %39 = getelementptr inbounds nuw i8, ptr %4, i64 1
  store i8 %38, ptr %39, align 1, !tbaa !3, !noalias !181
  %40 = lshr i32 %34, 8
  %41 = trunc i32 %40 to i8
  %42 = getelementptr inbounds nuw i8, ptr %4, i64 2
  store i8 %41, ptr %42, align 1, !tbaa !3, !noalias !181
  %43 = trunc i32 %34 to i8
  %44 = getelementptr inbounds nuw i8, ptr %4, i64 3
  store i8 %43, ptr %44, align 1, !tbaa !3, !noalias !181
  call void @png_write_data(ptr noundef nonnull %0, ptr noundef nonnull %4, i64 noundef 4) #12
  br label %png_write_chunk_end.exit

._crit_edge:                                      ; preds = %png_write_chunk_data.exit.us.preheader, %png_write_chunk_header.exit
  tail call void @llvm.experimental.noalias.scope.decl(metadata !181)
  call void @llvm.lifetime.start.p0(i64 4, ptr nonnull %4) #12, !noalias !181
  br label %png_write_chunk_end.exit

png_write_chunk_end.exit:                         ; preds = %._crit_edge, %._crit_edge.thread
  call void @llvm.lifetime.end.p0(i64 4, ptr nonnull %4) #12, !noalias !181
  call void @llvm.lifetime.end.p0(i64 1, ptr nonnull %6) #12
  ret void
}